; Function Attrs: mustprogress uwtable
define internal void @_ZN6google8protobufL29InitializationErrorStringImplB5cxx11ERKNS0_11MessageLiteE(ptr noalias sret(%"class.std::__cxx11::basic_string") align 8 %agg.result, ptr noundef nonnull align 8 dereferenceable(16) %msg) #3 personality ptr @__gxx_personality_v0 {
entry:
  %errors.i = alloca %"class.std::vector.5", align 8
  call void @llvm.lifetime.start.p0(i64 24, ptr nonnull %errors.i)
  call void @llvm.memset.p0.i64(ptr noundef nonnull align 8 dereferenceable(24) %errors.i, i8 0, i64 24, i1 false), !noalias !19
  invoke void @_ZNK6google8protobuf7Message24FindInitializationErrorsEPSt6vectorINSt7__cxx1112basic_stringIcSt11char_traitsIcESaIcEEESaIS8_EE(ptr noundef nonnull align 8 dereferenceable(16) %msg, ptr noundef nonnull %errors.i)
          to label %invoke.cont.i unwind label %lpad.i, !noalias !19

invoke.cont.i:                                    ; preds = %entry
  %0 = load ptr, ptr %errors.i, align 8, !noalias !22
  %_M_finish.i.i.i.i.i = getelementptr inbounds i8, ptr %errors.i, i64 8
  %1 = load ptr, ptr %_M_finish.i.i.i.i.i, align 8, !noalias !22
  invoke void @_ZN4absl12lts_2023080216strings_internal13JoinAlgorithmIN9__gnu_cxx17__normal_iteratorIPKNSt7__cxx1112basic_stringIcSt11char_traitsIcESaIcEEESt6vectorISA_SaISA_EEEEvEESA_T_SH_St17basic_string_viewIcS8_ENS1_11NoFormatterE(ptr sret(%"class.std::__cxx11::basic_string") align 8 %agg.result, ptr %0, ptr %1, i64 2, ptr nonnull @.str.5)
          to label %invoke.cont2.i unwind label %lpad.i

invoke.cont2.i:                                   ; preds = %invoke.cont.i
  %2 = load ptr, ptr %errors.i, align 8, !noalias !19
  %3 = load ptr, ptr %_M_finish.i.i.i.i.i, align 8, !noalias !19
  %cmp.not3.i.i.i.i.i = icmp eq ptr %2, %3
  br i1 %cmp.not3.i.i.i.i.i, label %invoke.cont.i.i, label %for.body.i.i.i.i.i

for.body.i.i.i.i.i:                               ; preds = %invoke.cont2.i, %for.body.i.i.i.i.i
  %__first.addr.04.i.i.i.i.i = phi ptr [ %incdec.ptr.i.i.i.i.i, %for.body.i.i.i.i.i ], [ %2, %invoke.cont2.i ]
  call void @_ZNSt7__cxx1112basic_stringIcSt11char_traitsIcESaIcEED1Ev(ptr noundef nonnull align 8 dereferenceable(32) %__first.addr.04.i.i.i.i.i) #29
  %incdec.ptr.i.i.i.i.i = getelementptr inbounds i8, ptr %__first.addr.04.i.i.i.i.i, i64 32
  %cmp.not.i.i.i.i.i = icmp eq ptr %incdec.ptr.i.i.i.i.i, %3
  br i1 %cmp.not.i.i.i.i.i, label %invoke.contthread-pre-split.i.i, label %for.body.i.i.i.i.i, !llvm.loop !9

invoke.contthread-pre-split.i.i:                  ; preds = %for.body.i.i.i.i.i
  %.pr.i.i = load ptr, ptr %errors.i, align 8, !noalias !19
  br label %invoke.cont.i.i

invoke.cont.i.i:                                  ; preds = %invoke.contthread-pre-split.i.i, %invoke.cont2.i
  %4 = phi ptr [ %.pr.i.i, %invoke.contthread-pre-split.i.i ], [ %2, %invoke.cont2.i ]
  %tobool.not.i.i.i.i = icmp eq ptr %4, null
  br i1 %tobool.not.i.i.i.i, label %_ZNK6google8protobuf7Message25InitializationErrorStringB5cxx11Ev.exit, label %if.then.i.i.i.i

if.then.i.i.i.i:                                  ; preds = %invoke.cont.i.i
  call void @_ZdlPv(ptr noundef nonnull %4) #27
  br label %_ZNK6google8protobuf7Message25InitializationErrorStringB5cxx11Ev.exit

lpad.i:                                           ; preds = %invoke.cont.i, %entry
  %5 = landingpad { ptr, i32 }
          cleanup
  call void @_ZNSt6vectorINSt7__cxx1112basic_stringIcSt11char_traitsIcESaIcEEESaIS5_EED2Ev(ptr noundef nonnull align 8 dereferenceable(24) %errors.i) #29
  resume { ptr, i32 } %5

_ZNK6google8protobuf7Message25InitializationErrorStringB5cxx11Ev.exit: ; preds = %invoke.cont.i.i, %if.then.i.i.i.i
  call void @llvm.lifetime.end.p0(i64 24, ptr nonnull %errors.i)
  ret void
}